target datalayout = "e-m:e-p270:32:32-p271:32:32-p272:64:64-i64:64-i128:128-f80:128-n8:16:32:64-S128"
target triple = "x86_64-unknown-linux-gnu"

%struct.SCSISense = type { i8, i8, i8 }

@.str = private unnamed_addr constant [11 x i8] c"in_len > 0\00", align 1
@.str.1 = private unnamed_addr constant [21 x i8] c"../qemu/scsi/utils.c\00", align 1
@__PRETTY_FUNCTION__.scsi_parse_sense_buf = private unnamed_addr constant [53 x i8] c"SCSISense scsi_parse_sense_buf(const uint8_t *, int)\00", align 1
@sense_code_IO_ERROR = dso_local constant %struct.SCSISense { i8 11, i8 0, i8 6 }, align 1

; Function Attrs: nounwind sspstrong uwtable
define dso_local i24 @scsi_parse_sense_buf(ptr noundef %in_buf, i32 noundef %in_len) #0 {
entry:
  %retval = alloca %struct.SCSISense, align 1
  %in_buf.addr = alloca ptr, align 8
  %in_len.addr = alloca i32, align 4
  %fixed_in = alloca i8, align 1
  %sense = alloca %struct.SCSISense, align 1
  %retval.coerce = alloca i24, align 4
  store ptr %in_buf, ptr %in_buf.addr, align 8
  store i32 %in_len, ptr %in_len.addr, align 4
  %0 = load i32, ptr %in_len.addr, align 4
  %cmp = icmp sgt i32 %0, 0
  br i1 %cmp, label %if.then, label %if.else

if.then:                                          ; preds = %entry
  br label %if.end

if.else:                                          ; preds = %entry
  call void @__assert_fail(ptr noundef @.str, ptr noundef @.str.1, i32 noundef 100, ptr noundef @__PRETTY_FUNCTION__.scsi_parse_sense_buf) #5
  unreachable

if.end:                                           ; preds = %if.then
  %1 = load ptr, ptr %in_buf.addr, align 8
  %arrayidx = getelementptr i8, ptr %1, i64 0
  %2 = load i8, ptr %arrayidx, align 1
  %conv = zext i8 %2 to i32
  %and = and i32 %conv, 2
  %cmp1 = icmp eq i32 %and, 0
  %frombool = zext i1 %cmp1 to i8
  store i8 %frombool, ptr %fixed_in, align 1
  %3 = load i8, ptr %fixed_in, align 1
  %tobool = trunc i8 %3 to i1
  br i1 %tobool, label %if.then3, label %if.else11

if.then3:                                         ; preds = %if.end
  %4 = load i32, ptr %in_len.addr, align 4
  %cmp4 = icmp slt i32 %4, 14
  br i1 %cmp4, label %if.then6, label %if.end7

if.then6:                                         ; preds = %if.then3
  call void @llvm.memcpy.p0.p0.i64(ptr align 1 %retval, ptr align 1 @sense_code_IO_ERROR, i64 3, i1 false)
  br label %return

if.end7:                                          ; preds = %if.then3
  %5 = load ptr, ptr %in_buf.addr, align 8
  %arrayidx8 = getelementptr i8, ptr %5, i64 2
  %6 = load i8, ptr %arrayidx8, align 1
  %key = getelementptr inbounds %struct.SCSISense, ptr %sense, i32 0, i32 0
  store i8 %6, ptr %key, align 1
  %7 = load ptr, ptr %in_buf.addr, align 8
  %arrayidx9 = getelementptr i8, ptr %7, i64 12
  %8 = load i8, ptr %arrayidx9, align 1
  %asc = getelementptr inbounds %struct.SCSISense, ptr %sense, i32 0, i32 1
  store i8 %8, ptr %asc, align 1
  %9 = load ptr, ptr %in_buf.addr, align 8
  %arrayidx10 = getelementptr i8, ptr %9, i64 13
  %10 = load i8, ptr %arrayidx10, align 1
  %ascq = getelementptr inbounds %struct.SCSISense, ptr %sense, i32 0, i32 2
  store i8 %10, ptr %ascq, align 1
  br label %if.end22

if.else11:                                        ; preds = %if.end
  %11 = load i32, ptr %in_len.addr, align 4
  %cmp12 = icmp slt i32 %11, 4
  br i1 %cmp12, label %if.then14, label %if.end15

if.then14:                                        ; preds = %if.else11
  call void @llvm.memcpy.p0.p0.i64(ptr align 1 %retval, ptr align 1 @sense_code_IO_ERROR, i64 3, i1 false)
  br label %return

if.end15:                                         ; preds = %if.else11
  %12 = load ptr, ptr %in_buf.addr, align 8
  %arrayidx16 = getelementptr i8, ptr %12, i64 1
  %13 = load i8, ptr %arrayidx16, align 1
  %key17 = getelementptr inbounds %struct.SCSISense, ptr %sense, i32 0, i32 0
  store i8 %13, ptr %key17, align 1
  %14 = load ptr, ptr %in_buf.addr, align 8
  %arrayidx18 = getelementptr i8, ptr %14, i64 2
  %15 = load i8, ptr %arrayidx18, align 1
  %asc19 = getelementptr inbounds %struct.SCSISense, ptr %sense, i32 0, i32 1
  store i8 %15, ptr %asc19, align 1
  %16 = load ptr, ptr %in_buf.addr, align 8
  %arrayidx20 = getelementptr i8, ptr %16, i64 3
  %17 = load i8, ptr %arrayidx20, align 1
  %ascq21 = getelementptr inbounds %struct.SCSISense, ptr %sense, i32 0, i32 2
  store i8 %17, ptr %ascq21, align 1
  br label %if.end22

if.end22:                                         ; preds = %if.end15, %if.end7
  call void @llvm.memcpy.p0.p0.i64(ptr align 1 %retval, ptr align 1 %sense, i64 3, i1 false)
  br label %return

return:                                           ; preds = %if.end22, %if.then14, %if.then6
  call void @llvm.memcpy.p0.p0.i64(ptr align 4 %retval.coerce, ptr align 1 %retval, i64 3, i1 false)
  %18 = load i24, ptr %retval.coerce, align 4
  ret i24 %18
}