; Function Attrs: nounwind sspstrong uwtable
define dso_local i24 @scsi_parse_sense_buf(ptr noundef readonly captures(none) %in_buf, i32 noundef %in_len) local_unnamed_addr #1 {
entry:
  %cmp = icmp sgt i32 %in_len, 0
  br i1 %cmp, label %if.end, label %if.else

if.else:                                          ; preds = %entry
  tail call void @__assert_fail(ptr noundef nonnull @.str, ptr noundef nonnull @.str.1, i32 noundef 100, ptr noundef nonnull @__PRETTY_FUNCTION__.scsi_parse_sense_buf) #11
  unreachable

if.end:                                           ; preds = %entry
  %0 = load i8, ptr %in_buf, align 1
  %1 = and i8 %0, 2
  %cmp1 = icmp eq i8 %1, 0
  br i1 %cmp1, label %if.then3, label %if.else11

if.then3:                                         ; preds = %if.end
  %cmp4 = icmp samesign ult i32 %in_len, 14
  br i1 %cmp4, label %return, label %if.end22

if.else11:                                        ; preds = %if.end
  %cmp12 = icmp samesign ult i32 %in_len, 4
  br i1 %cmp12, label %return, label %if.end22

if.end22:                                         ; preds = %if.else11, %if.then3
  %.sink13 = phi i64 [ 2, %if.then3 ], [ 1, %if.else11 ]
  %.sink12 = phi i64 [ 12, %if.then3 ], [ 2, %if.else11 ]
  %.sink = phi i64 [ 13, %if.then3 ], [ 3, %if.else11 ]
  %arrayidx16 = getelementptr i8, ptr %in_buf, i64 %.sink13
  %arrayidx18 = getelementptr i8, ptr %in_buf, i64 %.sink12
  %arrayidx20 = getelementptr i8, ptr %in_buf, i64 %.sink
  %sense.sroa.0.0 = load i8, ptr %arrayidx16, align 1
  %sense.sroa.3.0 = load i8, ptr %arrayidx18, align 1
  %sense.sroa.5.0 = load i8, ptr %arrayidx20, align 1
  br label %return

return:                                           ; preds = %if.else11, %if.then3, %if.end22
  %retval.sroa.0.0 = phi i8 [ %sense.sroa.0.0, %if.end22 ], [ 11, %if.then3 ], [ 11, %if.else11 ]
  %retval.sroa.4.0 = phi i8 [ %sense.sroa.3.0, %if.end22 ], [ 0, %if.then3 ], [ 0, %if.else11 ]
  %retval.sroa.5.0 = phi i8 [ %sense.sroa.5.0, %if.end22 ], [ 6, %if.then3 ], [ 6, %if.else11 ]
  %retval.sroa.5.0.insert.ext = zext i8 %retval.sroa.5.0 to i24
  %retval.sroa.5.0.insert.shift = shl nuw i24 %retval.sroa.5.0.insert.ext, 16
  %retval.sroa.4.0.insert.ext = zext i8 %retval.sroa.4.0 to i24
  %retval.sroa.4.0.insert.shift = shl nuw nsw i24 %retval.sroa.4.0.insert.ext, 8
  %retval.sroa.4.0.insert.insert = or disjoint i24 %retval.sroa.5.0.insert.shift, %retval.sroa.4.0.insert.shift
  %retval.sroa.0.0.insert.ext = zext i8 %retval.sroa.0.0 to i24
  %retval.sroa.0.0.insert.insert = or disjoint i24 %retval.sroa.4.0.insert.insert, %retval.sroa.0.0.insert.ext
  ret i24 %retval.sroa.0.0.insert.insert
}